; Function Attrs: mustprogress nounwind uwtable
define hidden noundef ptr @_ZN12ciMethodData7data_atEi(ptr nocapture noundef nonnull readonly align 8 dereferenceable(176) %0, i32 noundef %1) local_unnamed_addr #1 align 2 {
  %3 = getelementptr inbounds i8, ptr %0, i64 24
  %4 = load i32, ptr %3, align 8
  %.not = icmp sgt i32 %4, %1
  br i1 %.not, label %5, label %11

5:                                                ; preds = %2
  %6 = getelementptr inbounds i8, ptr %0, i64 32
  %7 = load ptr, ptr %6, align 8
  %8 = sext i32 %1 to i64
  %9 = getelementptr inbounds i8, ptr %7, i64 %8
  %10 = tail call noundef ptr @_ZN12ciMethodData9data_fromEP10DataLayout(ptr nonnull align 8 poison, ptr noundef %9)
  br label %11

11:                                               ; preds = %2, %5
  %.0 = phi ptr [ %10, %5 ], [ null, %2 ]
  ret ptr %.0
}